target datalayout = "e-m:e-p270:32:32-p271:32:32-p272:64:64-i64:64-i128:128-f80:128-n8:16:32:64-S128"
target triple = "x86_64-pc-linux-gnu"

%struct._zval_struct = type { %union._zend_value, %union.anon, %union.anon.2 }
%union._zend_value = type { i64 }
%union.anon = type { i32 }
%union.anon.2 = type { i32 }
%struct._zend_stack = type { i32, i32, i32, ptr }
%struct._zend_array = type { %struct._zend_refcounted_h, %union.anon.5, i32, %union.anon.7, i32, i32, i32, i32, i64, ptr }
%struct._zend_refcounted_h = type { i32, %union.anon.4 }
%union.anon.4 = type { i32 }
%union.anon.5 = type { i32 }
%union.anon.7 = type { ptr }
%struct._zend_php_scanner_globals = type { ptr, ptr, i32, ptr, ptr, ptr, ptr, ptr, i32, %struct._zend_stack, %struct._zend_ptr_stack, %struct._zend_stack, i8, i32, i8, ptr, i64, ptr, i64, ptr, ptr, ptr, i32, ptr, ptr }
%struct._zend_ptr_stack = type { i32, i32, ptr, ptr, i8 }
%struct._zend_class_entry = type { i8, ptr, %union.anon.3, i32, i32, i32, i32, ptr, ptr, ptr, %struct._zend_array, %struct._zend_array, %struct._zend_array, ptr, ptr, ptr, ptr, ptr, ptr, ptr, ptr, ptr, ptr, ptr, ptr, ptr, ptr, ptr, ptr, ptr, ptr, ptr, %union.anon.8, ptr, ptr, ptr, ptr, i32, i32, %union.anon.9, ptr, ptr, ptr, ptr, i32, ptr, ptr, %union.anon.10 }
%union.anon.3 = type { ptr }
%union.anon.8 = type { ptr }
%union.anon.9 = type { ptr }
%union.anon.10 = type { %struct.anon.11 }
%struct.anon.11 = type { ptr, i32, i32 }
%struct._zend_string = type { %struct._zend_refcounted_h, i64, i64, [1 x i8] }
%struct._zend_object = type { %struct._zend_refcounted_h, i32, ptr, ptr, ptr, [1 x %struct._zval_struct] }
%struct._zend_refcounted = type { %struct._zend_refcounted_h }

@language_scanner_globals = external global %struct._zend_php_scanner_globals, align 8

; Function Attrs: nounwind uwtable
define internal void @add_token(ptr noundef %0, i32 noundef %1, ptr noundef %2, i64 noundef %3, i32 noundef %4, ptr noundef %5, ptr noundef %6) #0 {
  %8 = alloca ptr, align 8
  %9 = alloca i32, align 4
  %10 = alloca i32, align 4
  %11 = alloca i32, align 4
  %12 = alloca ptr, align 8
  %13 = alloca i32, align 4
  %14 = alloca ptr, align 8
  %15 = alloca i64, align 8
  %16 = alloca i32, align 4
  %17 = alloca ptr, align 8
  %18 = alloca ptr, align 8
  %19 = alloca %struct._zval_struct, align 8
  %20 = alloca ptr, align 8
  %21 = alloca ptr, align 8
  %22 = alloca ptr, align 8
  %23 = alloca ptr, align 8
  %24 = alloca ptr, align 8
  %25 = alloca ptr, align 8
  %26 = alloca ptr, align 8
  %27 = alloca ptr, align 8
  %28 = alloca ptr, align 8
  %29 = alloca ptr, align 8
  %30 = alloca ptr, align 8
  %31 = alloca ptr, align 8
  %32 = alloca ptr, align 8
  %33 = alloca i32, align 4
  %34 = alloca ptr, align 8
  %35 = alloca ptr, align 8
  %36 = alloca ptr, align 8
  %37 = alloca ptr, align 8
  %38 = alloca i32, align 4
  %39 = alloca ptr, align 8
  %40 = alloca ptr, align 8
  %41 = alloca ptr, align 8
  %42 = alloca ptr, align 8
  %43 = alloca ptr, align 8
  %44 = alloca ptr, align 8
  store ptr %0, ptr %12, align 8
  store i32 %1, ptr %13, align 4
  store ptr %2, ptr %14, align 8
  store i64 %3, ptr %15, align 8
  store i32 %4, ptr %16, align 4
  store ptr %5, ptr %17, align 8
  store ptr %6, ptr %18, align 8
  %45 = load ptr, ptr %17, align 8
  %46 = icmp ne ptr %45, null
  br i1 %46, label %47, label %188

47:                                               ; preds = %7
  %48 = load ptr, ptr %17, align 8
  %49 = call ptr @zend_objects_new(ptr noundef %48)
  store ptr %49, ptr %20, align 8
  br label %50

50:                                               ; preds = %47
  store ptr %19, ptr %21, align 8
  %51 = load ptr, ptr %20, align 8
  %52 = load ptr, ptr %21, align 8
  %53 = getelementptr inbounds %struct._zval_struct, ptr %52, i32 0, i32 0
  store ptr %51, ptr %53, align 8
  %54 = load ptr, ptr %21, align 8
  %55 = getelementptr inbounds %struct._zval_struct, ptr %54, i32 0, i32 1
  store i32 776, ptr %55, align 8
  br label %56

56:                                               ; preds = %50
  br label %57

57:                                               ; preds = %56
  %58 = load ptr, ptr %20, align 8
  %59 = getelementptr inbounds %struct._zend_object, ptr %58, i32 0, i32 5
  %60 = getelementptr inbounds [1 x %struct._zval_struct], ptr %59, i64 0, i64 0
  store ptr %60, ptr %22, align 8
  %61 = load i32, ptr %13, align 4
  %62 = sext i32 %61 to i64
  %63 = load ptr, ptr %22, align 8
  %64 = getelementptr inbounds %struct._zval_struct, ptr %63, i32 0, i32 0
  store i64 %62, ptr %64, align 8
  %65 = load ptr, ptr %22, align 8
  %66 = getelementptr inbounds %struct._zval_struct, ptr %65, i32 0, i32 1
  store i32 4, ptr %66, align 8
  br label %67

67:                                               ; preds = %57
  br label %68

68:                                               ; preds = %67
  %69 = load ptr, ptr %20, align 8
  %70 = getelementptr inbounds %struct._zend_object, ptr %69, i32 0, i32 5
  %71 = getelementptr inbounds [1 x %struct._zval_struct], ptr %70, i64 0, i64 1
  store ptr %71, ptr %23, align 8
  %72 = load ptr, ptr %14, align 8
  %73 = load i64, ptr %15, align 8
  %74 = load ptr, ptr %18, align 8
  %75 = call ptr @make_str(ptr noundef %72, i64 noundef %73, ptr noundef %74)
  store ptr %75, ptr %24, align 8
  %76 = load ptr, ptr %24, align 8
  %77 = load ptr, ptr %23, align 8
  %78 = getelementptr inbounds %struct._zval_struct, ptr %77, i32 0, i32 0
  store ptr %76, ptr %78, align 8
  %79 = load ptr, ptr %24, align 8
  %80 = getelementptr inbounds %struct._zend_string, ptr %79, i32 0, i32 0
  %81 = getelementptr inbounds %struct._zend_refcounted_h, ptr %80, i32 0, i32 1
  %82 = load i32, ptr %81, align 4
  store i32 %82, ptr %9, align 4
  %83 = load i32, ptr %9, align 4
  %84 = and i32 %83, 1008
  %85 = and i32 %84, 64
  %86 = icmp ne i32 %85, 0
  %87 = select i1 %86, i32 6, i32 262
  %88 = load ptr, ptr %23, align 8
  %89 = getelementptr inbounds %struct._zval_struct, ptr %88, i32 0, i32 1
  store i32 %87, ptr %89, align 8
  br label %90

90:                                               ; preds = %68
  br label %91

91:                                               ; preds = %90
  %92 = load ptr, ptr %20, align 8
  %93 = getelementptr inbounds %struct._zend_object, ptr %92, i32 0, i32 5
  %94 = getelementptr inbounds [1 x %struct._zval_struct], ptr %93, i64 0, i64 2
  store ptr %94, ptr %25, align 8
  %95 = load i32, ptr %16, align 4
  %96 = sext i32 %95 to i64
  %97 = load ptr, ptr %25, align 8
  %98 = getelementptr inbounds %struct._zval_struct, ptr %97, i32 0, i32 0
  store i64 %96, ptr %98, align 8
  %99 = load ptr, ptr %25, align 8
  %100 = getelementptr inbounds %struct._zval_struct, ptr %99, i32 0, i32 1
  store i32 4, ptr %100, align 8
  br label %101

101:                                              ; preds = %91
  br label %102

102:                                              ; preds = %101
  %103 = load ptr, ptr %20, align 8
  %104 = getelementptr inbounds %struct._zend_object, ptr %103, i32 0, i32 5
  %105 = getelementptr inbounds [1 x %struct._zval_struct], ptr %104, i64 0, i64 3
  store ptr %105, ptr %26, align 8
  %106 = load ptr, ptr %14, align 8
  %107 = load ptr, ptr getelementptr inbounds (%struct._zend_php_scanner_globals, ptr @language_scanner_globals, i32 0, i32 3), align 8
  %108 = ptrtoint ptr %106 to i64
  %109 = ptrtoint ptr %107 to i64
  %110 = sub i64 %108, %109
  %111 = load ptr, ptr %26, align 8
  %112 = getelementptr inbounds %struct._zval_struct, ptr %111, i32 0, i32 0
  store i64 %110, ptr %112, align 8
  %113 = load ptr, ptr %26, align 8
  %114 = getelementptr inbounds %struct._zval_struct, ptr %113, i32 0, i32 1
  store i32 4, ptr %114, align 8
  br label %115

115:                                              ; preds = %102
  %116 = load ptr, ptr %17, align 8
  %117 = getelementptr inbounds %struct._zend_class_entry, ptr %116, i32 0, i32 5
  %118 = load i32, ptr %117, align 8
  %119 = icmp sgt i32 %118, 4
  %120 = xor i1 %119, true
  %121 = xor i1 %120, true
  %122 = zext i1 %121 to i32
  %123 = sext i32 %122 to i64
  %124 = icmp ne i64 %123, 0
  br i1 %124, label %125, label %187

125:                                              ; preds = %115
  %126 = load ptr, ptr %20, align 8
  %127 = getelementptr inbounds %struct._zend_object, ptr %126, i32 0, i32 5
  %128 = getelementptr inbounds [1 x %struct._zval_struct], ptr %127, i64 0, i64 4
  store ptr %128, ptr %27, align 8
  %129 = load ptr, ptr %17, align 8
  %130 = getelementptr inbounds %struct._zend_class_entry, ptr %129, i32 0, i32 7
  %131 = load ptr, ptr %130, align 8
  %132 = getelementptr inbounds %struct._zval_struct, ptr %131, i64 4
  store ptr %132, ptr %28, align 8
  %133 = load ptr, ptr %17, align 8
  %134 = getelementptr inbounds %struct._zend_class_entry, ptr %133, i32 0, i32 7
  %135 = load ptr, ptr %134, align 8
  %136 = load ptr, ptr %17, align 8
  %137 = getelementptr inbounds %struct._zend_class_entry, ptr %136, i32 0, i32 5
  %138 = load i32, ptr %137, align 8
  %139 = sext i32 %138 to i64
  %140 = getelementptr inbounds %struct._zval_struct, ptr %135, i64 %139
  store ptr %140, ptr %29, align 8
  br label %141

141:                                              ; preds = %181, %125
  %142 = load ptr, ptr %28, align 8
  %143 = load ptr, ptr %29, align 8
  %144 = icmp ult ptr %142, %143
  br i1 %144, label %145, label %186

145:                                              ; preds = %141
  br label %146

146:                                              ; preds = %145
  br label %147

147:                                              ; preds = %146
  %148 = load ptr, ptr %27, align 8
  store ptr %148, ptr %30, align 8
  %149 = load ptr, ptr %28, align 8
  store ptr %149, ptr %31, align 8
  %150 = load ptr, ptr %31, align 8
  %151 = getelementptr inbounds %struct._zval_struct, ptr %150, i32 0, i32 0
  %152 = load ptr, ptr %151, align 8
  store ptr %152, ptr %32, align 8
  %153 = load ptr, ptr %31, align 8
  %154 = getelementptr inbounds %struct._zval_struct, ptr %153, i32 0, i32 1
  %155 = load i32, ptr %154, align 8
  store i32 %155, ptr %33, align 4
  br label %156

156:                                              ; preds = %147
  %157 = load ptr, ptr %32, align 8
  %158 = load ptr, ptr %30, align 8
  %159 = getelementptr inbounds %struct._zval_struct, ptr %158, i32 0, i32 0
  store ptr %157, ptr %159, align 8
  %160 = load i32, ptr %33, align 4
  %161 = load ptr, ptr %30, align 8
  %162 = getelementptr inbounds %struct._zval_struct, ptr %161, i32 0, i32 1
  store i32 %160, ptr %162, align 8
  br label %163

163:                                              ; preds = %156
  %164 = load i32, ptr %33, align 4
  %165 = and i32 %164, 65280
  %166 = icmp ne i32 %165, 0
  br i1 %166, label %167, label %173

167:                                              ; preds = %163
  %168 = load ptr, ptr %32, align 8
  %169 = getelementptr inbounds %struct._zend_refcounted, ptr %168, i32 0, i32 0
  store ptr %169, ptr %8, align 8
  %170 = load ptr, ptr %8, align 8
  %171 = load i32, ptr %170, align 4
  %172 = add i32 %171, 1
  store i32 %172, ptr %170, align 4
  br label %173

173:                                              ; preds = %167, %163
  br label %174

174:                                              ; preds = %173
  %175 = load ptr, ptr %28, align 8
  %176 = getelementptr inbounds %struct._zval_struct, ptr %175, i32 0, i32 2
  %177 = load i32, ptr %176, align 4
  %178 = load ptr, ptr %27, align 8
  %179 = getelementptr inbounds %struct._zval_struct, ptr %178, i32 0, i32 2
  store i32 %177, ptr %179, align 4
  br label %180

180:                                              ; preds = %174
  br label %181

181:                                              ; preds = %180
  %182 = load ptr, ptr %28, align 8
  %183 = getelementptr inbounds %struct._zval_struct, ptr %182, i32 1
  store ptr %183, ptr %28, align 8
  %184 = load ptr, ptr %27, align 8
  %185 = getelementptr inbounds %struct._zval_struct, ptr %184, i32 1
  store ptr %185, ptr %27, align 8
  br label %141

186:                                              ; preds = %141
  br label %187

187:                                              ; preds = %186, %115
  br label %321

188:                                              ; preds = %7
  %189 = load i32, ptr %13, align 4
  %190 = icmp sge i32 %189, 256
  br i1 %190, label %191, label %299

191:                                              ; preds = %188
  br label %192

192:                                              ; preds = %191
  %193 = call ptr @_zend_new_array_0()
  store ptr %193, ptr %34, align 8
  store ptr %19, ptr %35, align 8
  %194 = load ptr, ptr %34, align 8
  %195 = load ptr, ptr %35, align 8
  %196 = getelementptr inbounds %struct._zval_struct, ptr %195, i32 0, i32 0
  store ptr %194, ptr %196, align 8
  %197 = load ptr, ptr %35, align 8
  %198 = getelementptr inbounds %struct._zval_struct, ptr %197, i32 0, i32 1
  store i32 775, ptr %198, align 8
  br label %199

199:                                              ; preds = %192
  %200 = getelementptr inbounds %struct._zval_struct, ptr %19, i32 0, i32 0
  %201 = load ptr, ptr %200, align 8
  call void @zend_hash_real_init_packed(ptr noundef %201)
  br label %202

202:                                              ; preds = %199
  %203 = getelementptr inbounds %struct._zval_struct, ptr %19, i32 0, i32 0
  %204 = load ptr, ptr %203, align 8
  store ptr %204, ptr %36, align 8
  %205 = load ptr, ptr %36, align 8
  %206 = getelementptr inbounds %struct._zend_array, ptr %205, i32 0, i32 3
  %207 = load ptr, ptr %206, align 8
  %208 = load ptr, ptr %36, align 8
  %209 = getelementptr inbounds %struct._zend_array, ptr %208, i32 0, i32 4
  %210 = load i32, ptr %209, align 8
  %211 = zext i32 %210 to i64
  %212 = getelementptr inbounds %struct._zval_struct, ptr %207, i64 %211
  store ptr %212, ptr %37, align 8
  %213 = load ptr, ptr %36, align 8
  %214 = getelementptr inbounds %struct._zend_array, ptr %213, i32 0, i32 4
  %215 = load i32, ptr %214, align 8
  store i32 %215, ptr %38, align 4
  %216 = load ptr, ptr %36, align 8
  %217 = getelementptr inbounds %struct._zend_array, ptr %216, i32 0, i32 1
  %218 = load i32, ptr %217, align 8
  %219 = and i32 %218, 4
  %220 = icmp ne i32 %219, 0
  call void @llvm.assume(i1 %220)
  br label %221

221:                                              ; preds = %202
  %222 = load ptr, ptr %37, align 8
  store ptr %222, ptr %39, align 8
  %223 = load i32, ptr %13, align 4
  %224 = sext i32 %223 to i64
  %225 = load ptr, ptr %39, align 8
  %226 = getelementptr inbounds %struct._zval_struct, ptr %225, i32 0, i32 0
  store i64 %224, ptr %226, align 8
  %227 = load ptr, ptr %39, align 8
  %228 = getelementptr inbounds %struct._zval_struct, ptr %227, i32 0, i32 1
  store i32 4, ptr %228, align 8
  br label %229

229:                                              ; preds = %221
  br label %230

230:                                              ; preds = %229
  %231 = load ptr, ptr %37, align 8
  %232 = getelementptr inbounds %struct._zval_struct, ptr %231, i32 1
  store ptr %232, ptr %37, align 8
  %233 = load i32, ptr %38, align 4
  %234 = add i32 %233, 1
  store i32 %234, ptr %38, align 4
  br label %235

235:                                              ; preds = %230
  br label %236

236:                                              ; preds = %235
  %237 = load ptr, ptr %37, align 8
  store ptr %237, ptr %40, align 8
  %238 = load ptr, ptr %14, align 8
  %239 = load i64, ptr %15, align 8
  %240 = load ptr, ptr %18, align 8
  %241 = call ptr @make_str(ptr noundef %238, i64 noundef %239, ptr noundef %240)
  store ptr %241, ptr %41, align 8
  %242 = load ptr, ptr %41, align 8
  %243 = load ptr, ptr %40, align 8
  %244 = getelementptr inbounds %struct._zval_struct, ptr %243, i32 0, i32 0
  store ptr %242, ptr %244, align 8
  %245 = load ptr, ptr %41, align 8
  %246 = getelementptr inbounds %struct._zend_string, ptr %245, i32 0, i32 0
  %247 = getelementptr inbounds %struct._zend_refcounted_h, ptr %246, i32 0, i32 1
  %248 = load i32, ptr %247, align 4
  store i32 %248, ptr %10, align 4
  %249 = load i32, ptr %10, align 4
  %250 = and i32 %249, 1008
  %251 = and i32 %250, 64
  %252 = icmp ne i32 %251, 0
  %253 = select i1 %252, i32 6, i32 262
  %254 = load ptr, ptr %40, align 8
  %255 = getelementptr inbounds %struct._zval_struct, ptr %254, i32 0, i32 1
  store i32 %253, ptr %255, align 8
  br label %256

256:                                              ; preds = %236
  br label %257

257:                                              ; preds = %256
  %258 = load ptr, ptr %37, align 8
  %259 = getelementptr inbounds %struct._zval_struct, ptr %258, i32 1
  store ptr %259, ptr %37, align 8
  %260 = load i32, ptr %38, align 4
  %261 = add i32 %260, 1
  store i32 %261, ptr %38, align 4
  br label %262

262:                                              ; preds = %257
  br label %263

263:                                              ; preds = %262
  %264 = load ptr, ptr %37, align 8
  store ptr %264, ptr %42, align 8
  %265 = load i32, ptr %16, align 4
  %266 = sext i32 %265 to i64
  %267 = load ptr, ptr %42, align 8
  %268 = getelementptr inbounds %struct._zval_struct, ptr %267, i32 0, i32 0
  store i64 %266, ptr %268, align 8
  %269 = load ptr, ptr %42, align 8
  %270 = getelementptr inbounds %struct._zval_struct, ptr %269, i32 0, i32 1
  store i32 4, ptr %270, align 8
  br label %271

271:                                              ; preds = %263
  br label %272

272:                                              ; preds = %271
  %273 = load ptr, ptr %37, align 8
  %274 = getelementptr inbounds %struct._zval_struct, ptr %273, i32 1
  store ptr %274, ptr %37, align 8
  %275 = load i32, ptr %38, align 4
  %276 = add i32 %275, 1
  store i32 %276, ptr %38, align 4
  br label %277

277:                                              ; preds = %272
  br label %278

278:                                              ; preds = %277
  %279 = load i32, ptr %38, align 4
  %280 = load ptr, ptr %36, align 8
  %281 = getelementptr inbounds %struct._zend_array, ptr %280, i32 0, i32 4
  %282 = load i32, ptr %281, align 8
  %283 = sub i32 %279, %282
  %284 = load ptr, ptr %36, align 8
  %285 = getelementptr inbounds %struct._zend_array, ptr %284, i32 0, i32 5
  %286 = load i32, ptr %285, align 4
  %287 = add i32 %286, %283
  store i32 %287, ptr %285, align 4
  %288 = load i32, ptr %38, align 4
  %289 = load ptr, ptr %36, align 8
  %290 = getelementptr inbounds %struct._zend_array, ptr %289, i32 0, i32 4
  store i32 %288, ptr %290, align 8
  %291 = load i32, ptr %38, align 4
  %292 = zext i32 %291 to i64
  %293 = load ptr, ptr %36, align 8
  %294 = getelementptr inbounds %struct._zend_array, ptr %293, i32 0, i32 8
  store i64 %292, ptr %294, align 8
  %295 = load ptr, ptr %36, align 8
  %296 = getelementptr inbounds %struct._zend_array, ptr %295, i32 0, i32 7
  store i32 0, ptr %296, align 4
  br label %297

297:                                              ; preds = %278
  br label %298

298:                                              ; preds = %297
  br label %320

299:                                              ; preds = %188
  br label %300

300:                                              ; preds = %299
  store ptr %19, ptr %43, align 8
  %301 = load ptr, ptr %14, align 8
  %302 = load i64, ptr %15, align 8
  %303 = load ptr, ptr %18, align 8
  %304 = call ptr @make_str(ptr noundef %301, i64 noundef %302, ptr noundef %303)
  store ptr %304, ptr %44, align 8
  %305 = load ptr, ptr %44, align 8
  %306 = load ptr, ptr %43, align 8
  %307 = getelementptr inbounds %struct._zval_struct, ptr %306, i32 0, i32 0
  store ptr %305, ptr %307, align 8
  %308 = load ptr, ptr %44, align 8
  %309 = getelementptr inbounds %struct._zend_string, ptr %308, i32 0, i32 0
  %310 = getelementptr inbounds %struct._zend_refcounted_h, ptr %309, i32 0, i32 1
  %311 = load i32, ptr %310, align 4
  store i32 %311, ptr %11, align 4
  %312 = load i32, ptr %11, align 4
  %313 = and i32 %312, 1008
  %314 = and i32 %313, 64
  %315 = icmp ne i32 %314, 0
  %316 = select i1 %315, i32 6, i32 262
  %317 = load ptr, ptr %43, align 8
  %318 = getelementptr inbounds %struct._zval_struct, ptr %317, i32 0, i32 1
  store i32 %316, ptr %318, align 8
  br label %319

319:                                              ; preds = %300
  br label %320

320:                                              ; preds = %319, %298
  br label %321

321:                                              ; preds = %320, %187
  %322 = load ptr, ptr %12, align 8
  %323 = getelementptr inbounds %struct._zval_struct, ptr %322, i32 0, i32 0
  %324 = load ptr, ptr %323, align 8
  %325 = call ptr @zend_hash_next_index_insert_new(ptr noundef %324, ptr noundef %19)
  ret void
}