; Function Attrs: nounwind uwtable
define internal fastcc void @add_token(ptr nocapture noundef readonly %0, i32 noundef %1, ptr noundef %2, i64 noundef %3, i32 noundef %4, ptr noundef %5, ptr noundef %6) unnamed_addr #0 {
  %8 = alloca %struct._zval_struct, align 8
  %.not = icmp eq ptr %5, null
  br i1 %.not, label %55, label %9

9:                                                ; preds = %7
  %10 = tail call ptr @zend_objects_new(ptr noundef nonnull %5) #10
  store ptr %10, ptr %8, align 8
  %11 = getelementptr inbounds i8, ptr %8, i64 8
  store i32 776, ptr %11, align 8
  %12 = getelementptr inbounds i8, ptr %10, i64 40
  %13 = sext i32 %1 to i64
  store i64 %13, ptr %12, align 8
  %14 = getelementptr inbounds i8, ptr %10, i64 48
  store i32 4, ptr %14, align 8
  %15 = getelementptr inbounds i8, ptr %10, i64 56
  %16 = tail call fastcc ptr @make_str(ptr noundef %2, i64 noundef %3, ptr noundef %6)
  store ptr %16, ptr %15, align 8
  %17 = getelementptr inbounds i8, ptr %16, i64 4
  %18 = load i32, ptr %17, align 4
  %19 = and i32 %18, 64
  %.not101 = icmp eq i32 %19, 0
  %20 = select i1 %.not101, i32 262, i32 6
  %21 = getelementptr inbounds i8, ptr %10, i64 64
  store i32 %20, ptr %21, align 8
  %22 = getelementptr inbounds i8, ptr %10, i64 72
  %23 = sext i32 %4 to i64
  store i64 %23, ptr %22, align 8
  %24 = getelementptr inbounds i8, ptr %10, i64 80
  store i32 4, ptr %24, align 8
  %25 = getelementptr inbounds i8, ptr %10, i64 88
  %26 = load ptr, ptr getelementptr inbounds (%struct._zend_php_scanner_globals, ptr @language_scanner_globals, i64 0, i32 3), align 8
  %27 = ptrtoint ptr %2 to i64
  %28 = ptrtoint ptr %26 to i64
  %29 = sub i64 %27, %28
  store i64 %29, ptr %25, align 8
  %30 = getelementptr inbounds i8, ptr %10, i64 96
  store i32 4, ptr %30, align 8
  %31 = getelementptr inbounds i8, ptr %5, i64 32
  %32 = load i32, ptr %31, align 8
  %33 = icmp sgt i32 %32, 4
  br i1 %33, label %.lr.ph.preheader, label %.loopexit

.lr.ph.preheader:                                 ; preds = %9
  %34 = getelementptr inbounds i8, ptr %5, i64 40
  %35 = load ptr, ptr %34, align 8
  %36 = zext nneg i32 %32 to i64
  %.idx = shl nuw nsw i64 %36, 4
  %37 = getelementptr inbounds i8, ptr %35, i64 %.idx
  %38 = getelementptr inbounds i8, ptr %35, i64 64
  %39 = getelementptr inbounds i8, ptr %10, i64 104
  br label %.lr.ph

.lr.ph:                                           ; preds = %.lr.ph.preheader, %48
  %.0104 = phi ptr [ %53, %48 ], [ %39, %.lr.ph.preheader ]
  %.095103 = phi ptr [ %52, %48 ], [ %38, %.lr.ph.preheader ]
  %40 = load ptr, ptr %.095103, align 8
  %41 = getelementptr inbounds i8, ptr %.095103, i64 8
  %42 = load i32, ptr %41, align 8
  store ptr %40, ptr %.0104, align 8
  %43 = getelementptr inbounds i8, ptr %.0104, i64 8
  store i32 %42, ptr %43, align 8
  %44 = and i32 %42, 65280
  %.not102 = icmp eq i32 %44, 0
  br i1 %.not102, label %48, label %45

45:                                               ; preds = %.lr.ph
  %46 = load i32, ptr %40, align 4
  %47 = add i32 %46, 1
  store i32 %47, ptr %40, align 4
  br label %48

48:                                               ; preds = %.lr.ph, %45
  %49 = getelementptr inbounds i8, ptr %.095103, i64 12
  %50 = load i32, ptr %49, align 4
  %51 = getelementptr inbounds i8, ptr %.0104, i64 12
  store i32 %50, ptr %51, align 4
  %52 = getelementptr inbounds i8, ptr %.095103, i64 16
  %53 = getelementptr inbounds i8, ptr %.0104, i64 16
  %54 = icmp ult ptr %52, %37
  br i1 %54, label %.lr.ph, label %.loopexit

55:                                               ; preds = %7
  %56 = icmp sgt i32 %1, 255
  br i1 %56, label %57, label %91

57:                                               ; preds = %55
  %58 = tail call ptr @_zend_new_array_0() #10
  store ptr %58, ptr %8, align 8
  %59 = getelementptr inbounds i8, ptr %8, i64 8
  store i32 775, ptr %59, align 8
  tail call void @zend_hash_real_init_packed(ptr noundef %58) #10
  %60 = getelementptr inbounds i8, ptr %58, i64 16
  %61 = load ptr, ptr %60, align 8
  %62 = getelementptr inbounds i8, ptr %58, i64 24
  %63 = load i32, ptr %62, align 8
  %64 = zext i32 %63 to i64
  %65 = getelementptr inbounds %struct._zval_struct, ptr %61, i64 %64
  %66 = getelementptr inbounds i8, ptr %58, i64 8
  %67 = load i32, ptr %66, align 8
  %68 = and i32 %67, 4
  %69 = icmp ne i32 %68, 0
  tail call void @llvm.assume(i1 %69)
  %70 = zext nneg i32 %1 to i64
  store i64 %70, ptr %65, align 8
  %71 = getelementptr inbounds i8, ptr %65, i64 8
  store i32 4, ptr %71, align 8
  %72 = getelementptr inbounds i8, ptr %65, i64 16
  %73 = tail call fastcc ptr @make_str(ptr noundef %2, i64 noundef %3, ptr noundef %6)
  store ptr %73, ptr %72, align 8
  %74 = getelementptr inbounds i8, ptr %73, i64 4
  %75 = load i32, ptr %74, align 4
  %76 = and i32 %75, 64
  %.not100 = icmp eq i32 %76, 0
  %77 = select i1 %.not100, i32 262, i32 6
  %78 = getelementptr inbounds i8, ptr %65, i64 24
  store i32 %77, ptr %78, align 8
  %79 = getelementptr inbounds i8, ptr %65, i64 32
  %80 = sext i32 %4 to i64
  store i64 %80, ptr %79, align 8
  %81 = getelementptr inbounds i8, ptr %65, i64 40
  store i32 4, ptr %81, align 8
  %82 = add i32 %63, 3
  %83 = load i32, ptr %62, align 8
  %84 = sub i32 %82, %83
  %85 = getelementptr inbounds i8, ptr %58, i64 28
  %86 = load i32, ptr %85, align 4
  %87 = add i32 %84, %86
  store i32 %87, ptr %85, align 4
  store i32 %82, ptr %62, align 8
  %88 = zext i32 %82 to i64
  %89 = getelementptr inbounds i8, ptr %58, i64 40
  store i64 %88, ptr %89, align 8
  %90 = getelementptr inbounds i8, ptr %58, i64 36
  store i32 0, ptr %90, align 4
  br label %.loopexit

91:                                               ; preds = %55
  %92 = tail call fastcc ptr @make_str(ptr noundef %2, i64 noundef %3, ptr noundef %6)
  store ptr %92, ptr %8, align 8
  %93 = getelementptr inbounds i8, ptr %92, i64 4
  %94 = load i32, ptr %93, align 4
  %95 = and i32 %94, 64
  %.not99 = icmp eq i32 %95, 0
  %96 = select i1 %.not99, i32 262, i32 6
  %97 = getelementptr inbounds i8, ptr %8, i64 8
  store i32 %96, ptr %97, align 8
  br label %.loopexit

.loopexit:                                        ; preds = %48, %57, %91, %9
  %98 = load ptr, ptr %0, align 8
  %99 = call ptr @zend_hash_next_index_insert_new(ptr noundef %98, ptr noundef nonnull %8) #10
  ret void
}